; Function Attrs: mustprogress uwtable
define hidden noundef zeroext i1 @_Z17findPointsForLineRKN2cv3MatEfPNS_6Point_IiEEii(ptr noundef nonnull align 8 dereferenceable(96) %0, float noundef %1, ptr noundef writeonly captures(none) %2, i32 noundef %3, i32 noundef %4) local_unnamed_addr #3 personality ptr @__gxx_personality_v0 {
  %6 = alloca %"class.std::vector", align 8
  %7 = tail call noundef zeroext i1 @_ZNK2cv3Mat5emptyEv(ptr noundef nonnull align 8 dereferenceable(96) %0)
  br i1 %7, label %32, label %8

8:                                                ; preds = %5
  call void @llvm.lifetime.start.p0(i64 24, ptr nonnull %6) #19
  call void @llvm.memset.p0.i64(ptr noundef nonnull align 8 dereferenceable(24) %6, i8 0, i64 24, i1 false)
  invoke void @_Z12fillSegmentsRSt6vectorISt4pairIN2cv6Point_IiEES3_ESaIS4_EEii(ptr noundef nonnull align 8 dereferenceable(24) %6, i32 noundef %3, i32 noundef %4)
          to label %.preheader unwind label %28

.preheader:                                       ; preds = %8
  %9 = getelementptr inbounds nuw i8, ptr %6, i64 8
  %10 = load ptr, ptr %9, align 8, !tbaa !30
  %11 = load ptr, ptr %6, align 8, !tbaa !34
  %12 = ptrtoint ptr %10 to i64
  %13 = ptrtoint ptr %11 to i64
  %14 = sub i64 %12, %13
  %15 = ashr exact i64 %14, 4
  %.not = icmp eq ptr %10, %11
  br i1 %.not, label %._crit_edge, label %.lr.ph

.lr.ph:                                           ; preds = %.preheader, %21
  %16 = phi i64 [ %25, %21 ], [ 0, %.preheader ]
  %.026 = phi i32 [ %24, %21 ], [ 0, %.preheader ]
  %.01625 = phi i32 [ %spec.select, %21 ], [ 0, %.preheader ]
  %17 = getelementptr inbounds nuw %"struct.std::pair", ptr %11, i64 %16
  %18 = zext nneg i32 %.01625 to i64
  %19 = getelementptr inbounds nuw %"class.cv::Point_", ptr %2, i64 %18
  %20 = invoke noundef zeroext i1 @_Z25findCrossPointWithBordersRKN2cv3MatEfRKSt4pairINS_6Point_IiEES5_ERS5_(ptr noundef nonnull align 8 dereferenceable(96) %0, float noundef %1, ptr noundef nonnull align 4 dereferenceable(16) %17, ptr noundef nonnull align 4 dereferenceable(8) %19)
          to label %21 unwind label %.thread28

21:                                               ; preds = %.lr.ph
  %22 = zext i1 %20 to i32
  %spec.select = add nuw nsw i32 %.01625, %22
  %23 = icmp samesign ult i32 %spec.select, 2
  %24 = add i32 %.026, 1
  %25 = zext i32 %24 to i64
  %26 = icmp ugt i64 %15, %25
  %or.cond = select i1 %23, i1 %26, i1 false
  br i1 %or.cond, label %.lr.ph, label %.thread, !llvm.loop !75

.thread28:                                        ; preds = %.lr.ph
  %27 = landingpad { ptr, i32 }
          cleanup
  br label %30

._crit_edge:                                      ; preds = %.preheader
  %.not.i.i.i = icmp eq ptr %11, null
  br i1 %.not.i.i.i, label %_ZNSt6vectorISt4pairIN2cv6Point_IiEES3_ESaIS4_EED2Ev.exit, label %.thread

.thread:                                          ; preds = %21, %._crit_edge
  tail call void @_ZdlPv(ptr noundef nonnull %11) #22
  br label %_ZNSt6vectorISt4pairIN2cv6Point_IiEES3_ESaIS4_EED2Ev.exit

_ZNSt6vectorISt4pairIN2cv6Point_IiEES3_ESaIS4_EED2Ev.exit: ; preds = %._crit_edge, %.thread
  call void @llvm.lifetime.end.p0(i64 24, ptr nonnull %6) #19
  br label %32

28:                                               ; preds = %8
  %29 = landingpad { ptr, i32 }
          cleanup
  %.pre = load ptr, ptr %6, align 8, !tbaa !34
  %.not.i.i.i20 = icmp eq ptr %.pre, null
  br i1 %.not.i.i.i20, label %_ZNSt6vectorISt4pairIN2cv6Point_IiEES3_ESaIS4_EED2Ev.exit21, label %30

30:                                               ; preds = %.thread28, %28
  %.pn31 = phi { ptr, i32 } [ %27, %.thread28 ], [ %29, %28 ]
  %31 = phi ptr [ %11, %.thread28 ], [ %.pre, %28 ]
  tail call void @_ZdlPv(ptr noundef nonnull %31) #22
  br label %_ZNSt6vectorISt4pairIN2cv6Point_IiEES3_ESaIS4_EED2Ev.exit21

_ZNSt6vectorISt4pairIN2cv6Point_IiEES3_ESaIS4_EED2Ev.exit21: ; preds = %28, %30
  %.pn32 = phi { ptr, i32 } [ %29, %28 ], [ %.pn31, %30 ]
  call void @llvm.lifetime.end.p0(i64 24, ptr nonnull %6) #19
  resume { ptr, i32 } %.pn32

32:                                               ; preds = %5, %_ZNSt6vectorISt4pairIN2cv6Point_IiEES3_ESaIS4_EED2Ev.exit
  %.017 = xor i1 %7, true
  ret i1 %.017
}